target datalayout = "e-m:e-p270:32:32-p271:32:32-p272:64:64-i64:64-i128:128-f80:128-n8:16:32:64-S128"
target triple = "x86_64-pc-linux-gnu"

%"class.std::__cxx11::basic_string" = type { %"struct.std::__cxx11::basic_string<char>::_Alloc_hider", i64, %union.anon }
%"struct.std::__cxx11::basic_string<char>::_Alloc_hider" = type { ptr }
%union.anon = type { i64, [8 x i8] }
%"class.cmProcessTools::LineParser" = type <{ %"class.cmProcessTools::OutputParser", ptr, ptr, %"class.std::__cxx11::basic_string", i8, i8, i8, [5 x i8] }>
%"class.cmProcessTools::OutputParser" = type { ptr }

@.str = private unnamed_addr constant [1 x i8] zeroinitializer, align 1

; Function Attrs: mustprogress nounwind uwtable
define dso_local void @_ZN14cmProcessTools10LineParser6SetLogEPSoPKc(ptr noundef nonnull align 8 dereferenceable(59) %0, ptr noundef %1, ptr noundef %2) #3 align 2 {
  %4 = alloca ptr, align 8
  %5 = alloca ptr, align 8
  %6 = alloca ptr, align 8
  store ptr %0, ptr %4, align 8
  store ptr %1, ptr %5, align 8
  store ptr %2, ptr %6, align 8
  %7 = load ptr, ptr %4, align 8
  %8 = load ptr, ptr %5, align 8
  %9 = getelementptr inbounds %"class.cmProcessTools::LineParser", ptr %7, i32 0, i32 1
  store ptr %8, ptr %9, align 8
  %10 = load ptr, ptr %6, align 8
  %11 = icmp ne ptr %10, null
  br i1 %11, label %12, label %14

12:                                               ; preds = %3
  %13 = load ptr, ptr %6, align 8
  br label %15

14:                                               ; preds = %3
  br label %15

15:                                               ; preds = %14, %12
  %16 = phi ptr [ %13, %12 ], [ @.str, %14 ]
  %17 = getelementptr inbounds %"class.cmProcessTools::LineParser", ptr %7, i32 0, i32 2
  store ptr %16, ptr %17, align 8
  ret void
}