; Function Attrs: mustprogress nofree norecurse nosync nounwind willreturn memory(argmem: write) uwtable
define dso_local void @_ZN14cmProcessTools10LineParser6SetLogEPSoPKc(ptr nocapture noundef nonnull writeonly align 8 dereferenceable(59) %0, ptr noundef %1, ptr noundef %2) local_unnamed_addr #4 align 2 {
  %4 = getelementptr inbounds i8, ptr %0, i64 8
  store ptr %1, ptr %4, align 8
  %.not = icmp eq ptr %2, null
  %5 = select i1 %.not, ptr @.str, ptr %2
  %6 = getelementptr inbounds i8, ptr %0, i64 16
  store ptr %5, ptr %6, align 8
  ret void
}